target datalayout = "e-m:e-p270:32:32-p271:32:32-p272:64:64-i64:64-i128:128-f80:128-n8:16:32:64-S128"
target triple = "x86_64-pc-linux-gnu"

%struct.P9Req = type { ptr, ptr, i16, i64, i32, i64, i64, i64, i32 }

@alloc = internal global ptr null, align 8

; Function Attrs: nounwind sspstrong uwtable
define dso_local void @v9fs_req_free(ptr noundef %0) #0 {
  %2 = alloca ptr, align 8
  store ptr %0, ptr %2, align 8
  %3 = load ptr, ptr @alloc, align 8
  %4 = load ptr, ptr %2, align 8
  %5 = getelementptr inbounds nuw %struct.P9Req, ptr %4, i32 0, i32 3
  %6 = load i64, ptr %5, align 8
  call void @guest_free(ptr noundef %3, i64 noundef %6)
  %7 = load ptr, ptr @alloc, align 8
  %8 = load ptr, ptr %2, align 8
  %9 = getelementptr inbounds nuw %struct.P9Req, ptr %8, i32 0, i32 5
  %10 = load i64, ptr %9, align 8
  call void @guest_free(ptr noundef %7, i64 noundef %10)
  %11 = load ptr, ptr %2, align 8
  call void @g_free(ptr noundef %11)
  ret void
}

; Function Attrs: nounwind sspstrong uwtable
define dso_local void @v9fs_runlinkat(ptr noundef %0) #0 {
  %2 = alloca ptr, align 8
  store ptr %0, ptr %2, align 8
  %3 = load ptr, ptr %2, align 8
  call void @v9fs_req_recv(ptr noundef %3, i8 noundef zeroext 77)
  %4 = load ptr, ptr %2, align 8
  call void @v9fs_req_free(ptr noundef %4)
  ret void
}